target datalayout = "e-m:e-p270:32:32-p271:32:32-p272:64:64-i64:64-i128:128-f80:128-n8:16:32:64-S128"
target triple = "x86_64-pc-linux-gnu"

%"struct.pxrInternal_v0_24__pxrReserved__::TfDebug::_Node" = type { %"struct.std::atomic.130" }
%"struct.std::atomic.130" = type { i32 }
%"class.pxrInternal_v0_24__pxrReserved__::Sdf_LayerRegistry" = type { %"class.pxrInternal_v0_24__pxrReserved__::Sdf_LayerRegistry::_Layers" }
%"class.pxrInternal_v0_24__pxrReserved__::Sdf_LayerRegistry::_Layers" = type { %"class.std::unordered_map", %"class.std::unordered_multimap", %"class.std::unordered_multimap" }
%"class.std::unordered_map" = type { %"class.std::_Hashtable" }
%"class.std::_Hashtable" = type { ptr, i64, %"struct.std::__detail::_Hash_node_base", i64, %"struct.std::__detail::_Prime_rehash_policy", ptr }
%"struct.std::__detail::_Hash_node_base" = type { ptr }
%"struct.std::__detail::_Prime_rehash_policy" = type { float, i64 }
%"class.std::unordered_multimap" = type { %"class.std::_Hashtable.2" }
%"class.std::_Hashtable.2" = type { ptr, i64, %"struct.std::__detail::_Hash_node_base", i64, %"struct.std::__detail::_Prime_rehash_policy", ptr }
%"class.std::__cxx11::basic_string" = type { %"struct.std::__cxx11::basic_string<char>::_Alloc_hider", i64, %union.anon }
%"struct.std::__cxx11::basic_string<char>::_Alloc_hider" = type { ptr }
%union.anon = type { i64, [8 x i8] }

@.str.23 = private unnamed_addr constant [36 x i8] c"Sdf_LayerRegistry::Erase(%s) => %s\0A\00", align 1
@.str.24 = private unnamed_addr constant [8 x i8] c"Success\00", align 1
@.str.25 = private unnamed_addr constant [7 x i8] c"Failed\00", align 1
@_ZN32pxrInternal_v0_24__pxrReserved__7TfDebug5_DataINS_21SDF_ASSET__DebugCodesEE5nodesE = linkonce_odr global [5 x %"struct.pxrInternal_v0_24__pxrReserved__::TfDebug::_Node"] zeroinitializer, comdat, align 16
@__const._ZN32pxrInternal_v0_24__pxrReserved__19Tf_DebugGetEnumNameENS_21SDF_ASSET__DebugCodesE.CStrings = private unnamed_addr constant [5 x ptr] [ptr @.str.56, ptr @.str.57, ptr @.str.58, ptr @.str.59, ptr @.str.60], align 16

; Function Attrs: mustprogress nounwind uwtable
define linkonce_odr noundef ptr @_ZN32pxrInternal_v0_24__pxrReserved__19Tf_DebugGetEnumNameENS_21SDF_ASSET__DebugCodesE(i32 noundef %0) #0 comdat {
  %2 = alloca i32, align 4
  %3 = alloca [5 x ptr], align 16
  store i32 %0, ptr %2, align 4
  call void @llvm.memcpy.p0.p0.i64(ptr align 16 %3, ptr align 16 @__const._ZN32pxrInternal_v0_24__pxrReserved__19Tf_DebugGetEnumNameENS_21SDF_ASSET__DebugCodesE.CStrings, i64 40, i1 false)
  %4 = load i32, ptr %2, align 4
  %5 = sext i32 %4 to i64
  %6 = getelementptr inbounds [5 x ptr], ptr %3, i64 0, i64 %5
  %7 = load ptr, ptr %6, align 8
  ret ptr %7
}

; Function Attrs: mustprogress nounwind uwtable
define linkonce_odr noundef i32 @_ZNKSt6atomicIN32pxrInternal_v0_24__pxrReserved__7TfDebug10_NodeStateEE4loadESt12memory_order(ptr noundef nonnull align 4 dereferenceable(4) %0, i32 noundef %1) #0 comdat align 2 {
  %3 = alloca ptr, align 8
  %4 = alloca i32, align 4
  %5 = alloca [4 x i8], align 4
  %6 = alloca ptr, align 8
  store ptr %0, ptr %3, align 8
  store i32 %1, ptr %4, align 4
  %7 = load ptr, ptr %3, align 8
  %8 = getelementptr inbounds [4 x i8], ptr %5, i64 0, i64 0
  store ptr %8, ptr %6, align 8
  %9 = getelementptr inbounds nuw %"struct.std::atomic.130", ptr %7, i32 0, i32 0
  %10 = load i32, ptr %4, align 4
  %11 = load ptr, ptr %6, align 8
  switch i32 %10, label %12 [
    i32 1, label %14
    i32 2, label %14
    i32 5, label %16
  ]

12:                                               ; preds = %2
  %13 = load atomic i32, ptr %9 monotonic, align 4
  store i32 %13, ptr %11, align 4
  br label %18

14:                                               ; preds = %2, %2
  %15 = load atomic i32, ptr %9 acquire, align 4
  store i32 %15, ptr %11, align 4
  br label %18

16:                                               ; preds = %2
  %17 = load atomic i32, ptr %9 seq_cst, align 4
  store i32 %17, ptr %11, align 4
  br label %18

18:                                               ; preds = %16, %14, %12
  %19 = load ptr, ptr %6, align 8
  %20 = load i32, ptr %19, align 4
  ret i32 %20
}

; Function Attrs: mustprogress nounwind uwtable
define linkonce_odr noundef nonnull align 4 dereferenceable(4) ptr @_ZN32pxrInternal_v0_24__pxrReserved__7TfDebug8_GetNodeINS_21SDF_ASSET__DebugCodesEEERNS0_5_NodeET_(i32 noundef %0) #0 comdat align 2 {
  %2 = alloca i32, align 4
  store i32 %0, ptr %2, align 4
  %3 = load i32, ptr %2, align 4
  %4 = sext i32 %3 to i64
  %5 = getelementptr inbounds [5 x %"struct.pxrInternal_v0_24__pxrReserved__::TfDebug::_Node"], ptr @_ZN32pxrInternal_v0_24__pxrReserved__7TfDebug5_DataINS_21SDF_ASSET__DebugCodesEE5nodesE, i64 0, i64 %4
  ret ptr %5
}

; Function Attrs: mustprogress uwtable
define linkonce_odr noundef zeroext i1 @_ZN32pxrInternal_v0_24__pxrReserved__7TfDebug9IsEnabledINS_21SDF_ASSET__DebugCodesEEEbT_(i32 noundef %0) #1 comdat align 2 {
  %2 = alloca i32, align 4
  %3 = alloca ptr, align 8
  %4 = alloca i32, align 4
  store i32 %0, ptr %2, align 4
  %5 = load i32, ptr %2, align 4
  %6 = call noundef nonnull align 4 dereferenceable(4) ptr @_ZN32pxrInternal_v0_24__pxrReserved__7TfDebug8_GetNodeINS_21SDF_ASSET__DebugCodesEEERNS0_5_NodeET_(i32 noundef %5)
  store ptr %6, ptr %3, align 8
  %7 = load ptr, ptr %3, align 8
  %8 = getelementptr inbounds nuw %"struct.pxrInternal_v0_24__pxrReserved__::TfDebug::_Node", ptr %7, i32 0, i32 0
  %9 = call noundef i32 @_ZNKSt6atomicIN32pxrInternal_v0_24__pxrReserved__7TfDebug10_NodeStateEE4loadESt12memory_order(ptr noundef nonnull align 4 dereferenceable(4) %8, i32 noundef 5) #14
  store i32 %9, ptr %4, align 4
  %10 = load i32, ptr %4, align 4
  %11 = icmp eq i32 %10, 0
  br i1 %11, label %12, label %20

12:                                               ; preds = %1
  %13 = load i32, ptr %2, align 4
  %14 = call noundef nonnull align 4 dereferenceable(4) ptr @_ZN32pxrInternal_v0_24__pxrReserved__7TfDebug8_GetNodeINS_21SDF_ASSET__DebugCodesEEERNS0_5_NodeET_(i32 noundef %13)
  %15 = load i32, ptr %2, align 4
  %16 = call noundef ptr @_ZN32pxrInternal_v0_24__pxrReserved__19Tf_DebugGetEnumNameENS_21SDF_ASSET__DebugCodesE(i32 noundef %15)
  call void @_ZN32pxrInternal_v0_24__pxrReserved__7TfDebug15_InitializeNodeERNS0_5_NodeEPKc(ptr noundef nonnull align 4 dereferenceable(4) %14, ptr noundef %16)
  %17 = load ptr, ptr %3, align 8
  %18 = getelementptr inbounds nuw %"struct.pxrInternal_v0_24__pxrReserved__::TfDebug::_Node", ptr %17, i32 0, i32 0
  %19 = call noundef i32 @_ZNKSt6atomicIN32pxrInternal_v0_24__pxrReserved__7TfDebug10_NodeStateEE4loadESt12memory_order(ptr noundef nonnull align 4 dereferenceable(4) %18, i32 noundef 5) #14
  store i32 %19, ptr %4, align 4
  br label %20

20:                                               ; preds = %12, %1
  %21 = load i32, ptr %4, align 4
  %22 = icmp eq i32 %21, 2
  ret i1 %22
}

; Function Attrs: mustprogress uwtable
define void @_ZN32pxrInternal_v0_24__pxrReserved__17Sdf_LayerRegistry5EraseERKNS_9TfWeakPtrINS_8SdfLayerEEERKNS_13Sdf_AssetInfoE(ptr noundef nonnull align 8 dereferenceable(168) %0, ptr noundef nonnull align 8 dereferenceable(16) %1, ptr noundef nonnull align 8 dereferenceable(200) %2) #1 align 2 personality ptr @__gxx_personality_v0 {
  %4 = alloca ptr, align 8
  %5 = alloca ptr, align 8
  %6 = alloca ptr, align 8
  %7 = alloca i8, align 1
  %8 = alloca %"class.std::__cxx11::basic_string", align 8
  %9 = alloca ptr, align 8
  %10 = alloca i32, align 4
  store ptr %0, ptr %4, align 8
  store ptr %1, ptr %5, align 8
  store ptr %2, ptr %6, align 8
  %11 = load ptr, ptr %4, align 8
  %12 = getelementptr inbounds nuw %"class.pxrInternal_v0_24__pxrReserved__::Sdf_LayerRegistry", ptr %11, i32 0, i32 0
  %13 = load ptr, ptr %5, align 8
  %14 = load ptr, ptr %6, align 8
  %15 = call noundef zeroext i1 @_ZN32pxrInternal_v0_24__pxrReserved__17Sdf_LayerRegistry7_Layers5EraseERKNS_9TfWeakPtrINS_8SdfLayerEEERKNS_13Sdf_AssetInfoE(ptr noundef nonnull align 8 dereferenceable(168) %12, ptr noundef nonnull align 8 dereferenceable(16) %13, ptr noundef nonnull align 8 dereferenceable(200) %14)
  %16 = zext i1 %15 to i8
  store i8 %16, ptr %7, align 1
  %17 = call noundef zeroext i1 @_ZN32pxrInternal_v0_24__pxrReserved__7TfDebug9IsEnabledINS_21SDF_ASSET__DebugCodesEEEbT_(i32 noundef 3)
  br i1 %17, label %19, label %18

18:                                               ; preds = %3
  br label %30

19:                                               ; preds = %3
  %20 = load ptr, ptr %5, align 8
  call void @_ZN32pxrInternal_v0_24__pxrReserved__L18Sdf_LayerDebugReprB5cxx11ERKNS_9TfWeakPtrINS_8SdfLayerEEE(ptr dead_on_unwind writable sret(%"class.std::__cxx11::basic_string") align 8 %8, ptr noundef nonnull align 8 dereferenceable(16) %20)
  %21 = call noundef ptr @_ZNKSt7__cxx1112basic_stringIcSt11char_traitsIcESaIcEE5c_strEv(ptr noundef nonnull align 8 dereferenceable(32) %8) #14
  %22 = load i8, ptr %7, align 1
  %23 = trunc i8 %22 to i1
  %24 = select i1 %23, ptr @.str.24, ptr @.str.25
  invoke void (ptr, ...) @_ZN32pxrInternal_v0_24__pxrReserved__7TfDebug6Helper3MsgEPKcz(ptr noundef @.str.23, ptr noundef %21, ptr noundef %24)
          to label %25 unwind label %26

25:                                               ; preds = %19
  call void @_ZNSt7__cxx1112basic_stringIcSt11char_traitsIcESaIcEED1Ev(ptr noundef nonnull align 8 dereferenceable(32) %8) #14
  br label %30

26:                                               ; preds = %19
  %27 = landingpad { ptr, i32 }
          cleanup
  %28 = extractvalue { ptr, i32 } %27, 0
  store ptr %28, ptr %9, align 8
  %29 = extractvalue { ptr, i32 } %27, 1
  store i32 %29, ptr %10, align 4
  call void @_ZNSt7__cxx1112basic_stringIcSt11char_traitsIcESaIcEED1Ev(ptr noundef nonnull align 8 dereferenceable(32) %8) #14
  br label %31

30:                                               ; preds = %25, %18
  ret void

31:                                               ; preds = %26
  %32 = load ptr, ptr %9, align 8
  %33 = load i32, ptr %10, align 4
  %34 = insertvalue { ptr, i32 } poison, ptr %32, 0
  %35 = insertvalue { ptr, i32 } %34, i32 %33, 1
  resume { ptr, i32 } %35
}