; Function Attrs: mustprogress uwtable
define void @_ZN32pxrInternal_v0_24__pxrReserved__17Sdf_LayerRegistry5EraseERKNS_9TfWeakPtrINS_8SdfLayerEEERKNS_13Sdf_AssetInfoE(ptr noundef nonnull align 8 dereferenceable(168) %0, ptr noundef nonnull readonly align 8 captures(none) dereferenceable(16) %1, ptr noundef nonnull align 8 dereferenceable(200) %2) local_unnamed_addr #1 align 2 personality ptr @__gxx_personality_v0 {
  %4 = alloca %"class.std::__cxx11::basic_string", align 8
  %5 = tail call noundef zeroext i1 @_ZN32pxrInternal_v0_24__pxrReserved__17Sdf_LayerRegistry7_Layers5EraseERKNS_9TfWeakPtrINS_8SdfLayerEEERKNS_13Sdf_AssetInfoE(ptr noundef nonnull align 8 dereferenceable(168) %0, ptr noundef nonnull align 8 dereferenceable(16) %1, ptr noundef nonnull align 8 dereferenceable(200) %2)
  %6 = load atomic i32, ptr getelementptr inbounds nuw (i8, ptr @_ZN32pxrInternal_v0_24__pxrReserved__7TfDebug5_DataINS_21SDF_ASSET__DebugCodesEE5nodesE, i64 12) seq_cst, align 4
  %7 = icmp eq i32 %6, 0
  br i1 %7, label %8, label %_ZN32pxrInternal_v0_24__pxrReserved__7TfDebug9IsEnabledINS_21SDF_ASSET__DebugCodesEEEbT_.exit

8:                                                ; preds = %3
  tail call void @_ZN32pxrInternal_v0_24__pxrReserved__7TfDebug15_InitializeNodeERNS0_5_NodeEPKc(ptr noundef nonnull align 4 dereferenceable(4) getelementptr inbounds nuw (i8, ptr @_ZN32pxrInternal_v0_24__pxrReserved__7TfDebug5_DataINS_21SDF_ASSET__DebugCodesEE5nodesE, i64 12), ptr noundef nonnull @.str.59)
  %9 = load atomic i32, ptr getelementptr inbounds nuw (i8, ptr @_ZN32pxrInternal_v0_24__pxrReserved__7TfDebug5_DataINS_21SDF_ASSET__DebugCodesEE5nodesE, i64 12) seq_cst, align 4
  br label %_ZN32pxrInternal_v0_24__pxrReserved__7TfDebug9IsEnabledINS_21SDF_ASSET__DebugCodesEEEbT_.exit

_ZN32pxrInternal_v0_24__pxrReserved__7TfDebug9IsEnabledINS_21SDF_ASSET__DebugCodesEEEbT_.exit: ; preds = %3, %8
  %.0.i = phi i32 [ %9, %8 ], [ %6, %3 ]
  %10 = icmp eq i32 %.0.i, 2
  br i1 %10, label %11, label %17

11:                                               ; preds = %_ZN32pxrInternal_v0_24__pxrReserved__7TfDebug9IsEnabledINS_21SDF_ASSET__DebugCodesEEEbT_.exit
  call fastcc void @_ZN32pxrInternal_v0_24__pxrReserved__L18Sdf_LayerDebugReprB5cxx11ERKNS_9TfWeakPtrINS_8SdfLayerEEE(ptr dead_on_unwind noalias writable align 8 %4, ptr noundef nonnull align 8 dereferenceable(16) %1)
  %12 = call noundef ptr @_ZNKSt7__cxx1112basic_stringIcSt11char_traitsIcESaIcEE5c_strEv(ptr noundef nonnull align 8 dereferenceable(32) %4) #20
  %13 = select i1 %5, ptr @.str.24, ptr @.str.25
  invoke void (ptr, ...) @_ZN32pxrInternal_v0_24__pxrReserved__7TfDebug6Helper3MsgEPKcz(ptr noundef nonnull @.str.23, ptr noundef %12, ptr noundef nonnull %13)
          to label %14 unwind label %15

14:                                               ; preds = %11
  call void @_ZNSt7__cxx1112basic_stringIcSt11char_traitsIcESaIcEED1Ev(ptr noundef nonnull align 8 dereferenceable(32) %4) #20
  br label %17

15:                                               ; preds = %11
  %16 = landingpad { ptr, i32 }
          cleanup
  call void @_ZNSt7__cxx1112basic_stringIcSt11char_traitsIcESaIcEED1Ev(ptr noundef nonnull align 8 dereferenceable(32) %4) #20
  resume { ptr, i32 } %16

17:                                               ; preds = %_ZN32pxrInternal_v0_24__pxrReserved__7TfDebug9IsEnabledINS_21SDF_ASSET__DebugCodesEEEbT_.exit, %14
  ret void
}